; Function Attrs: mustprogress nounwind uwtable
define dso_local void @_ZN4llvm15InstrProfWriter11writeBufferEv(ptr dead_on_unwind noalias writable sret(%"class.std::unique_ptr.175") align 8 %0, ptr noundef nonnull align 8 dereferenceable(5305) %1) local_unnamed_addr #0 align 2 {
  %3 = alloca %"class.llvm::ProfOStream", align 8
  %4 = alloca %"class.std::__cxx11::basic_string", align 8
  %5 = alloca %"class.llvm::raw_string_ostream", align 8
  %6 = alloca %"class.llvm::Error", align 8
  %7 = alloca %"class.llvm::Twine", align 8
  call void @_ZNSt7__cxx1112basic_stringIcSt11char_traitsIcESaIcEEC1Ev(ptr noundef nonnull align 8 dereferenceable(32) %4) #22
  %8 = getelementptr inbounds nuw i8, ptr %5, i64 8
  store i32 0, ptr %8, align 8
  %9 = getelementptr inbounds nuw i8, ptr %5, i64 40
  store i8 0, ptr %9, align 8
  %10 = getelementptr inbounds nuw i8, ptr %5, i64 44
  store i32 1, ptr %10, align 4
  %11 = getelementptr inbounds nuw i8, ptr %5, i64 16
  call void @llvm.memset.p0.i64(ptr noundef nonnull align 8 dereferenceable(24) %11, i8 0, i64 24, i1 false)
  store ptr getelementptr inbounds nuw inrange(-16, 104) (i8, ptr @_ZTVN4llvm18raw_string_ostreamE, i64 16), ptr %5, align 8
  %12 = getelementptr inbounds nuw i8, ptr %5, i64 48
  store ptr %4, ptr %12, align 8
  call void @_ZN4llvm11raw_ostream16SetBufferAndModeEPcmNS0_10BufferKindE(ptr noundef nonnull align 8 dereferenceable(56) %5, ptr noundef null, i64 noundef 0, i32 noundef 0) #22
  call void @llvm.lifetime.start.p0(i64 32, ptr nonnull %3)
  store i8 0, ptr %3, align 8, !noalias !179
  %13 = getelementptr inbounds nuw i8, ptr %3, i64 8
  store ptr %5, ptr %13, align 8, !noalias !179
  %14 = getelementptr inbounds nuw i8, ptr %3, i64 16
  store ptr %5, ptr %14, align 8, !noalias !179
  %15 = getelementptr inbounds nuw i8, ptr %3, i64 24
  store i32 1, ptr %15, align 8, !noalias !179
  call void @_ZN4llvm15InstrProfWriter9writeImplERNS_11ProfOStreamE(ptr dead_on_unwind nonnull writable sret(%"class.llvm::Error") align 8 %6, ptr noundef nonnull align 8 dereferenceable(5305) %1, ptr noundef nonnull align 8 dereferenceable(32) %3)
  call void @llvm.lifetime.end.p0(i64 32, ptr nonnull %3)
  %16 = load ptr, ptr %6, align 8
  %.not = icmp eq ptr %16, null
  br i1 %.not, label %_ZN4llvm5ErrorD2Ev.exit1, label %_ZN4llvm5ErrorD2Ev.exit

_ZN4llvm5ErrorD2Ev.exit:                          ; preds = %2
  store ptr null, ptr %0, align 8
  %17 = load ptr, ptr %16, align 8
  %18 = getelementptr inbounds nuw i8, ptr %17, i64 8
  %19 = load ptr, ptr %18, align 8
  call void %19(ptr noundef nonnull align 8 dereferenceable(8) %16) #22
  br label %23

_ZN4llvm5ErrorD2Ev.exit1:                         ; preds = %2
  %20 = call noundef ptr @_ZNKSt7__cxx1112basic_stringIcSt11char_traitsIcESaIcEE4dataEv(ptr noundef nonnull align 8 dereferenceable(32) %4) #22
  %21 = call noundef i64 @_ZNKSt7__cxx1112basic_stringIcSt11char_traitsIcESaIcEE6lengthEv(ptr noundef nonnull align 8 dereferenceable(32) %4) #22
  %22 = getelementptr inbounds nuw i8, ptr %7, i64 32
  store i16 257, ptr %22, align 8
  call void @_ZN4llvm12MemoryBuffer16getMemBufferCopyENS_9StringRefERKNS_5TwineE(ptr dead_on_unwind writable sret(%"class.std::unique_ptr.175") align 8 %0, ptr %20, i64 %21, ptr noundef nonnull align 8 dereferenceable(34) %7) #22
  br label %23

23:                                               ; preds = %_ZN4llvm5ErrorD2Ev.exit, %_ZN4llvm5ErrorD2Ev.exit1
  call void @_ZN4llvm11raw_ostreamD2Ev(ptr noundef nonnull align 8 dereferenceable(56) %5) #22
  call void @_ZNSt7__cxx1112basic_stringIcSt11char_traitsIcESaIcEED1Ev(ptr noundef nonnull align 8 dereferenceable(32) %4) #22
  ret void
}